target datalayout = "e-m:e-p270:32:32-p271:32:32-p272:64:64-i64:64-i128:128-f80:128-n8:16:32:64-S128"
target triple = "x86_64-pc-linux-gnu"

@hf_marker = internal global i32 0, align 4
@hf_marker_segment = internal global i32 0, align 4
@hf_len = internal global i32 0, align 4
@hf_remain_seg_data = internal global i32 0, align 4
@ett_marker_segment = internal global i32 0, align 4
@.str.399 = private unnamed_addr constant [14 x i8] c": %s (0x%04X)\00", align 1
@.str.403 = private unnamed_addr constant [9 x i8] c"%u bytes\00", align 1

; Function Attrs: null_pointer_is_valid sspstrong uwtable
define internal void @process_marker_segment(ptr noundef %0, ptr noundef %1, i32 noundef %2, i16 noundef zeroext %3, ptr noundef %4) #0 {
  %6 = alloca ptr, align 8
  %7 = alloca ptr, align 8
  %8 = alloca i32, align 4
  %9 = alloca i16, align 2
  %10 = alloca ptr, align 8
  %11 = alloca ptr, align 8
  %12 = alloca ptr, align 8
  %13 = alloca i32, align 4
  store ptr %0, ptr %6, align 8
  store ptr %1, ptr %7, align 8
  store i32 %2, ptr %8, align 4
  store i16 %3, ptr %9, align 2
  store ptr %4, ptr %10, align 8
  call void @llvm.lifetime.start.p0(i64 8, ptr %11) #4
  call void @llvm.lifetime.start.p0(i64 8, ptr %12) #4
  %14 = load ptr, ptr %6, align 8
  %15 = icmp ne ptr %14, null
  br i1 %15, label %17, label %16

16:                                               ; preds = %5
  store i32 1, ptr %13, align 4
  br label %43

17:                                               ; preds = %5
  %18 = load ptr, ptr %6, align 8
  %19 = load i32, ptr @hf_marker_segment, align 4
  %20 = load ptr, ptr %7, align 8
  %21 = call ptr @proto_tree_add_item(ptr noundef %18, i32 noundef %19, ptr noundef %20, i32 noundef 0, i32 noundef -1, i32 noundef 0)
  store ptr %21, ptr %11, align 8
  %22 = load ptr, ptr %11, align 8
  %23 = load i32, ptr @ett_marker_segment, align 4
  %24 = call ptr @proto_item_add_subtree(ptr noundef %22, i32 noundef %23)
  store ptr %24, ptr %12, align 8
  %25 = load ptr, ptr %11, align 8
  %26 = load ptr, ptr %10, align 8
  %27 = load i16, ptr %9, align 2
  %28 = zext i16 %27 to i32
  call void (ptr, ptr, ...) @proto_item_append_text(ptr noundef %25, ptr noundef @.str.399, ptr noundef %26, i32 noundef %28)
  %29 = load ptr, ptr %12, align 8
  %30 = load i32, ptr @hf_marker, align 4
  %31 = load ptr, ptr %7, align 8
  %32 = call ptr @proto_tree_add_item(ptr noundef %29, i32 noundef %30, ptr noundef %31, i32 noundef 0, i32 noundef 2, i32 noundef 0)
  %33 = load ptr, ptr %12, align 8
  %34 = load i32, ptr @hf_len, align 4
  %35 = load ptr, ptr %7, align 8
  %36 = call ptr @proto_tree_add_item(ptr noundef %33, i32 noundef %34, ptr noundef %35, i32 noundef 2, i32 noundef 2, i32 noundef 0)
  %37 = load ptr, ptr %12, align 8
  %38 = load i32, ptr @hf_remain_seg_data, align 4
  %39 = load ptr, ptr %7, align 8
  %40 = load i32, ptr %8, align 4
  %41 = sub i32 %40, 2
  %42 = call ptr (ptr, i32, ptr, i32, i32, ptr, ptr, ...) @proto_tree_add_bytes_format_value(ptr noundef %37, i32 noundef %38, ptr noundef %39, i32 noundef 4, i32 noundef -1, ptr noundef null, ptr noundef @.str.403, i32 noundef %41)
  store i32 0, ptr %13, align 4
  br label %43

43:                                               ; preds = %17, %16
  call void @llvm.lifetime.end.p0(i64 8, ptr %12) #4
  call void @llvm.lifetime.end.p0(i64 8, ptr %11) #4
  %44 = load i32, ptr %13, align 4
  switch i32 %44, label %46 [
    i32 0, label %45
    i32 1, label %45
  ]

45:                                               ; preds = %43, %43
  ret void

46:                                               ; preds = %43
  unreachable
}