; Function Attrs: null_pointer_is_valid sspstrong uwtable
define internal fastcc void @process_marker_segment(ptr noundef %0, ptr noundef %1, i32 noundef range(i32 0, 65536) %2, i16 noundef zeroext %3, ptr noundef nonnull %4) unnamed_addr #0 {
  %.not = icmp eq ptr %0, null
  br i1 %.not, label %19, label %6

6:                                                ; preds = %5
  %7 = load i32, ptr @hf_marker_segment, align 4
  %8 = tail call ptr @proto_tree_add_item(ptr noundef nonnull %0, i32 noundef %7, ptr noundef %1, i32 noundef 0, i32 noundef -1, i32 noundef 0)
  %9 = load i32, ptr @ett_marker_segment, align 4
  %10 = tail call ptr @proto_item_add_subtree(ptr noundef %8, i32 noundef %9)
  %11 = zext i16 %3 to i32
  tail call void (ptr, ptr, ...) @proto_item_append_text(ptr noundef %8, ptr noundef nonnull @.str.399, ptr noundef nonnull %4, i32 noundef %11)
  %12 = load i32, ptr @hf_marker, align 4
  %13 = tail call ptr @proto_tree_add_item(ptr noundef %10, i32 noundef %12, ptr noundef %1, i32 noundef 0, i32 noundef 2, i32 noundef 0)
  %14 = load i32, ptr @hf_len, align 4
  %15 = tail call ptr @proto_tree_add_item(ptr noundef %10, i32 noundef %14, ptr noundef %1, i32 noundef 2, i32 noundef 2, i32 noundef 0)
  %16 = load i32, ptr @hf_remain_seg_data, align 4
  %17 = add nsw i32 %2, -2
  %18 = tail call ptr (ptr, i32, ptr, i32, i32, ptr, ptr, ...) @proto_tree_add_bytes_format_value(ptr noundef %10, i32 noundef %16, ptr noundef %1, i32 noundef 4, i32 noundef -1, ptr noundef null, ptr noundef nonnull @.str.403, i32 noundef %17)
  br label %19

19:                                               ; preds = %5, %6
  ret void
}